target datalayout = "e-m:e-p270:32:32-p271:32:32-p272:64:64-i64:64-i128:128-f80:128-n8:16:32:64-S128"
target triple = "x86_64-pc-linux-gnu"

%struct.ec_group_st = type { ptr, ptr, %struct.bignum_st, %struct.bignum_st, i32, ptr, %struct.bignum_st, %struct.bignum_st, %struct.bignum_st, i32, ptr, %struct.bignum_st }
%struct.bignum_st = type { ptr, i32, i32, i32, i32 }
%struct.ec_point_st = type { ptr, %struct.bignum_st, %struct.bignum_st, %struct.bignum_st }

@.str = private unnamed_addr constant [122 x i8] c"generated/home/dtcxzyw/WorkSpace/Projects/compilers/llvm-opt-benchmark/bench/libquic/libquic/boringssl/crypto/ec/simple.c\00", align 1

; Function Attrs: nounwind uwtable
define hidden i32 @ec_GFp_simple_make_affine(ptr noundef %0, ptr noundef %1, ptr noundef %2) #0 {
  %4 = alloca i32, align 4
  %5 = alloca ptr, align 8
  %6 = alloca ptr, align 8
  %7 = alloca ptr, align 8
  %8 = alloca ptr, align 8
  %9 = alloca ptr, align 8
  %10 = alloca ptr, align 8
  %11 = alloca i32, align 4
  %12 = alloca i32, align 4
  store ptr %0, ptr %5, align 8, !tbaa !6
  store ptr %1, ptr %6, align 8, !tbaa !28
  store ptr %2, ptr %7, align 8, !tbaa !21
  call void @llvm.lifetime.start.p0(i64 8, ptr %8) #6
  store ptr null, ptr %8, align 8, !tbaa !21
  call void @llvm.lifetime.start.p0(i64 8, ptr %9) #6
  call void @llvm.lifetime.start.p0(i64 8, ptr %10) #6
  call void @llvm.lifetime.start.p0(i64 4, ptr %11) #6
  store i32 0, ptr %11, align 4, !tbaa !23
  %13 = load ptr, ptr %6, align 8, !tbaa !28
  %14 = getelementptr inbounds nuw %struct.ec_point_st, ptr %13, i32 0, i32 3
  %15 = load ptr, ptr %5, align 8, !tbaa !6
  %16 = getelementptr inbounds nuw %struct.ec_group_st, ptr %15, i32 0, i32 11
  %17 = call i32 @BN_cmp(ptr noundef %14, ptr noundef %16)
  %18 = icmp eq i32 %17, 0
  br i1 %18, label %24, label %19

19:                                               ; preds = %3
  %20 = load ptr, ptr %5, align 8, !tbaa !6
  %21 = load ptr, ptr %6, align 8, !tbaa !28
  %22 = call i32 @EC_POINT_is_at_infinity(ptr noundef %20, ptr noundef %21)
  %23 = icmp ne i32 %22, 0
  br i1 %23, label %24, label %25

24:                                               ; preds = %19, %3
  store i32 1, ptr %4, align 4
  store i32 1, ptr %12, align 4
  br label %73

25:                                               ; preds = %19
  %26 = load ptr, ptr %7, align 8, !tbaa !21
  %27 = icmp eq ptr %26, null
  br i1 %27, label %28, label %34

28:                                               ; preds = %25
  %29 = call ptr @BN_CTX_new()
  store ptr %29, ptr %8, align 8, !tbaa !21
  store ptr %29, ptr %7, align 8, !tbaa !21
  %30 = load ptr, ptr %7, align 8, !tbaa !21
  %31 = icmp eq ptr %30, null
  br i1 %31, label %32, label %33

32:                                               ; preds = %28
  store i32 0, ptr %4, align 4
  store i32 1, ptr %12, align 4
  br label %73

33:                                               ; preds = %28
  br label %34

34:                                               ; preds = %33, %25
  %35 = load ptr, ptr %7, align 8, !tbaa !21
  call void @BN_CTX_start(ptr noundef %35)
  %36 = load ptr, ptr %7, align 8, !tbaa !21
  %37 = call ptr @BN_CTX_get(ptr noundef %36)
  store ptr %37, ptr %9, align 8, !tbaa !19
  %38 = load ptr, ptr %7, align 8, !tbaa !21
  %39 = call ptr @BN_CTX_get(ptr noundef %38)
  store ptr %39, ptr %10, align 8, !tbaa !19
  %40 = load ptr, ptr %10, align 8, !tbaa !19
  %41 = icmp eq ptr %40, null
  br i1 %41, label %42, label %43

42:                                               ; preds = %34
  br label %69

43:                                               ; preds = %34
  %44 = load ptr, ptr %5, align 8, !tbaa !6
  %45 = load ptr, ptr %6, align 8, !tbaa !28
  %46 = load ptr, ptr %9, align 8, !tbaa !19
  %47 = load ptr, ptr %10, align 8, !tbaa !19
  %48 = load ptr, ptr %7, align 8, !tbaa !21
  %49 = call i32 @EC_POINT_get_affine_coordinates_GFp(ptr noundef %44, ptr noundef %45, ptr noundef %46, ptr noundef %47, ptr noundef %48)
  %50 = icmp ne i32 %49, 0
  br i1 %50, label %51, label %59

51:                                               ; preds = %43
  %52 = load ptr, ptr %5, align 8, !tbaa !6
  %53 = load ptr, ptr %6, align 8, !tbaa !28
  %54 = load ptr, ptr %9, align 8, !tbaa !19
  %55 = load ptr, ptr %10, align 8, !tbaa !19
  %56 = load ptr, ptr %7, align 8, !tbaa !21
  %57 = call i32 @EC_POINT_set_affine_coordinates_GFp(ptr noundef %52, ptr noundef %53, ptr noundef %54, ptr noundef %55, ptr noundef %56)
  %58 = icmp ne i32 %57, 0
  br i1 %58, label %60, label %59

59:                                               ; preds = %51, %43
  br label %69

60:                                               ; preds = %51
  %61 = load ptr, ptr %6, align 8, !tbaa !28
  %62 = getelementptr inbounds nuw %struct.ec_point_st, ptr %61, i32 0, i32 3
  %63 = load ptr, ptr %5, align 8, !tbaa !6
  %64 = getelementptr inbounds nuw %struct.ec_group_st, ptr %63, i32 0, i32 11
  %65 = call i32 @BN_cmp(ptr noundef %62, ptr noundef %64)
  %66 = icmp ne i32 %65, 0
  br i1 %66, label %67, label %68

67:                                               ; preds = %60
  call void @ERR_put_error(i32 noundef 15, i32 noundef 0, i32 noundef 68, ptr noundef @.str, i32 noundef 950)
  br label %69

68:                                               ; preds = %60
  store i32 1, ptr %11, align 4, !tbaa !23
  br label %69

69:                                               ; preds = %68, %67, %59, %42
  %70 = load ptr, ptr %7, align 8, !tbaa !21
  call void @BN_CTX_end(ptr noundef %70)
  %71 = load ptr, ptr %8, align 8, !tbaa !21
  call void @BN_CTX_free(ptr noundef %71)
  %72 = load i32, ptr %11, align 4, !tbaa !23
  store i32 %72, ptr %4, align 4
  store i32 1, ptr %12, align 4
  br label %73

73:                                               ; preds = %69, %32, %24
  call void @llvm.lifetime.end.p0(i64 4, ptr %11) #6
  call void @llvm.lifetime.end.p0(i64 8, ptr %10) #6
  call void @llvm.lifetime.end.p0(i64 8, ptr %9) #6
  call void @llvm.lifetime.end.p0(i64 8, ptr %8) #6
  %74 = load i32, ptr %4, align 4
  ret i32 %74
}