; Function Attrs: nounwind uwtable
define hidden range(i32 0, 2) i32 @ec_GFp_simple_make_affine(ptr noundef %0, ptr noundef %1, ptr noundef %2) local_unnamed_addr #0 {
  %4 = getelementptr inbounds nuw i8, ptr %1, i64 56
  %5 = getelementptr inbounds nuw i8, ptr %0, i64 168
  %6 = tail call i32 @BN_cmp(ptr noundef nonnull %4, ptr noundef nonnull %5) #5
  %7 = icmp eq i32 %6, 0
  br i1 %7, label %27, label %8

8:                                                ; preds = %3
  %9 = tail call i32 @EC_POINT_is_at_infinity(ptr noundef nonnull %0, ptr noundef nonnull %1) #5
  %.not = icmp eq i32 %9, 0
  br i1 %.not, label %10, label %27

10:                                               ; preds = %8
  %11 = icmp eq ptr %2, null
  br i1 %11, label %12, label %15

12:                                               ; preds = %10
  %13 = tail call ptr @BN_CTX_new() #5
  %14 = icmp eq ptr %13, null
  br i1 %14, label %27, label %15

15:                                               ; preds = %12, %10
  %.027 = phi ptr [ %13, %12 ], [ null, %10 ]
  %.026 = phi ptr [ %13, %12 ], [ %2, %10 ]
  tail call void @BN_CTX_start(ptr noundef nonnull %.026) #5
  %16 = tail call ptr @BN_CTX_get(ptr noundef nonnull %.026) #5
  %17 = tail call ptr @BN_CTX_get(ptr noundef nonnull %.026) #5
  %18 = icmp eq ptr %17, null
  br i1 %18, label %26, label %19

19:                                               ; preds = %15
  %20 = tail call i32 @EC_POINT_get_affine_coordinates_GFp(ptr noundef nonnull %0, ptr noundef nonnull %1, ptr noundef %16, ptr noundef nonnull %17, ptr noundef nonnull %.026) #5
  %.not31 = icmp eq i32 %20, 0
  br i1 %.not31, label %26, label %21

21:                                               ; preds = %19
  %22 = tail call i32 @EC_POINT_set_affine_coordinates_GFp(ptr noundef nonnull %0, ptr noundef nonnull %1, ptr noundef %16, ptr noundef nonnull %17, ptr noundef nonnull %.026) #5
  %.not32 = icmp eq i32 %22, 0
  br i1 %.not32, label %26, label %23

23:                                               ; preds = %21
  %24 = tail call i32 @BN_cmp(ptr noundef nonnull %4, ptr noundef nonnull %5) #5
  %.not33 = icmp eq i32 %24, 0
  br i1 %.not33, label %26, label %25

25:                                               ; preds = %23
  tail call void @ERR_put_error(i32 noundef 15, i32 noundef 0, i32 noundef 68, ptr noundef nonnull @.str, i32 noundef 950) #5
  br label %26

26:                                               ; preds = %23, %19, %21, %15, %25
  %.0 = phi i32 [ 0, %15 ], [ 0, %25 ], [ 0, %21 ], [ 0, %19 ], [ 1, %23 ]
  tail call void @BN_CTX_end(ptr noundef nonnull %.026) #5
  tail call void @BN_CTX_free(ptr noundef %.027) #5
  br label %27

27:                                               ; preds = %12, %3, %8, %26
  %.025 = phi i32 [ %.0, %26 ], [ 1, %8 ], [ 1, %3 ], [ 0, %12 ]
  ret i32 %.025
}